Certificate:
    Data:
        Version: 3 (0x2)
        Serial Number: 2 (0x2)
    Signature Algorithm: sha256WithRSAEncryption
        Issuer: C=US, ST=CA, L=SanFrancisco, O=Fort-Funston, OU=MyOrganizationalUnit, CN=Fort-Funston CA/name=EasyRSA/emailAddress=me@myhost.mydomain
        Validity
            Not Before: Nov 30 12:06:43 2020 GMT
            Not After : Nov 28 12:06:43 2030 GMT
        Subject: C=US, ST=CA, L=SanFrancisco, O=Fort-Funston, OU=MyOrganizationalUnit, CN=client/name=EasyRSA/emailAddress=me@myhost.mydomain
        Subject Public Key Info:
            Public Key Algorithm: rsaEncryption
                Public-Key: (2048 bit)
                Modulus:
                    00:b7:91:9b:51:b4:71:21:fe:f4:c8:74:7c:20:a6:
                    90:40:7d:ac:2c:95:92:63:8e:fb:36:13:0e:b7:e1:
                    06:eb:5c:56:40:6e:dc:be:bb:e6:c5:30:69:11:ba:
                    19:65:2a:08:45:25:ed:6d:ca:82:c0:10:d8:ab:44:
                    b5:90:94:2a:76:bd:7e:aa:5a:88:07:2d:66:31:a3:
                    06:0c:3b:01:a4:de:42:32:69:8d:16:0f:10:a0:db:
                    fa:69:23:ec:14:5d:a7:ad:4b:33:c1:d0:a5:1c:f0:
                    fd:2b:19:9d:f4:0c:10:59:14:7e:d1:23:57:14:00:
                    50:d8:a3:50:93:57:c5:c6:73:d3:6b:32:10:51:18:
                    ef:13:08:fc:48:2a:cf:54:6a:e3:6f:c6:b7:63:b1:
                    7e:81:22:a1:69:a5:33:79:3c:8f:95:32:de:e7:72:
                    6e:4c:42:d8:99:3d:42:90:8e:81:8a:65:07:ee:0e:
                    87:e7:eb:6c:69:3a:61:df:33:c2:df:13:d5:1b:c9:
                    43:e4:ea:a5:73:8a:6a:1c:ad:97:82:4e:de:97:0f:
                    af:ff:b6:70:55:b8:ae:a5:80:dd:29:b4:26:f0:aa:
                    83:4d:13:a4:2b:7f:d2:17:99:fb:66:a3:6f:1b:26:
                    eb:bf:52:b1:c3:07:78:f1:a0:11:87:26:a9:80:37:
                    aa:55
                Exponent: 65537 (0x10001)
        X509v3 extensions:
            X509v3 Basic Constraints: 
                CA:FALSE
            Netscape Comment: 
                Easy-RSA Generated Certificate
            X509v3 Subject Key Identifier: 
                6C:98:38:D5:8D:F0:34:71:E3:26:CB:33:67:7A:D1:81:CD:79:6B:E2
            X509v3 Authority Key Identifier: 
                keyid:8B:09:F2:D7:17:2B:28:A3:A9:CC:FC:B7:F3:F1:DD:0B:C5:45:21:88
                DirName:/C=US/ST=CA/L=SanFrancisco/O=Fort-Funston/OU=MyOrganizationalUnit/CN=Fort-Funston CA/name=EasyRSA/emailAddress=me@myhost.mydomain
                serial:99:D4:B0:B5:2D:A5:4F:3B

            X509v3 Extended Key Usage: 
                TLS Web Client Authentication
            X509v3 Key Usage: 
                Digital Signature
    Signature Algorithm: sha256WithRSAEncryption
         b9:4b:4c:29:01:96:45:c5:ca:46:6f:a2:49:ad:41:85:c4:5b:
         19:07:6f:92:a1:e5:07:ff:1c:05:ca:eb:29:5f:63:91:b1:18:
         7b:f6:50:c1:a5:e7:16:48:3f:83:0b:2c:1a:fb:fc:76:7e:64:
         30:e6:28:f6:e1:62:eb:d3:a4:4c:94:ad:47:65:01:aa:6d:67:
         87:cf:ac:c3:b1:1f:96:f5:c0:4c:12:1b:85:38:3d:b4:41:ba:
         e1:35:59:67:8d:f7:96:8c:2d:f7:04:e7:94:ed:47:23:3a:63:
         ed:4b:95:db:c6:3a:ab:66:a5:49:0a:db:c7:c0:ea:e3:89:3d:
         37:fd:11:6d:1f:ed:25:26:3f:96:fe:b7:8a:1e:2c:16:b9:f8:
         39:6b:41:30:f7:76:2e:33:0a:47:9a:54:b9:ed:5b:37:27:d0:
         db:87:6a:5c:cb:f0:75:72:97:fa:55:34:73:28:da:fd:a1:e8:
         06:52:d4:d0:88:49:2e:9b:55:7f:ff:63:3a:eb:7a:0e:59:fa:
         e7:2c:35:bf:be:b8:30:81:44:cc:27:04:03:0f:fe:c6:f5:2a:
         2d:9f:57:8e:df:0d:54:4f:1e:07:fe:c8:cd:f4:5e:79:5b:4e:
         cc:95:ee:2f:58:cc:e0:80:82:ab:b1:86:ce:78:36:8f:c9:48:
         d8:35:d0:65
-----BEGIN CERTIFICATE-----
MIIFTzCCBDegAwIBAgIBAjANBgkqhkiG9w0BAQsFADCBtjELMAkGA1UEBhMCVVMx
CzAJBgNVBAgTAkNBMRUwEwYDVQQHEwxTYW5GcmFuY2lzY28xFTATBgNVBAoTDEZv
cnQtRnVuc3RvbjEdMBsGA1UECxMUTXlPcmdhbml6YXRpb25hbFVuaXQxGDAWBgNV
BAMTD0ZvcnQtRnVuc3RvbiBDQTEQMA4GA1UEKRMHRWFzeVJTQTEhMB8GCSqGSIb3
DQEJARYSbWVAbXlob3N0Lm15ZG9tYWluMB4XDTIwMTEzMDEyMDY0M1oXDTMwMTEy
ODEyMDY0M1owga0xCzAJBgNVBAYTAlVTMQswCQYDVQQIEwJDQTEVMBMGA1UEBxMM
U2FuRnJhbmNpc2NvMRUwEwYDVQQKEwxGb3J0LUZ1bnN0b24xHTAbBgNVBAsTFE15
T3JnYW5pemF0aW9uYWxVbml0MQ8wDQYDVQQDEwZjbGllbnQxEDAOBgNVBCkTB0Vh
c3lSU0ExITAfBgkqhkiG9w0BCQEWEm1lQG15aG9zdC5teWRvbWFpbjCCASIwDQYJ
KoZIhvcNAQEBBQADggEPADCCAQoCggEBALeRm1G0cSH+9Mh0fCCmkEB9rCyVkmOO
+zYTDrfhButcVkBu3L675sUwaRG6GWUqCEUl7W3KgsAQ2KtEtZCUKna9fqpaiAct
ZjGjBgw7AaTeQjJpjRYPEKDb+mkj7BRdp61LM8HQpRzw/SsZnfQMEFkUftEjVxQA
UNijUJNXxcZz02syEFEY7xMI/Egqz1Rq42/Gt2OxfoEioWmlM3k8j5Uy3udybkxC
2Jk9QpCOgYplB+4Oh+frbGk6Yd8zwt8T1RvJQ+TqpXOKahytl4JO3pcPr/+2cFW4
rqWA3Sm0JvCqg00TpCt/0heZ+2ajbxsm679SscMHePGgEYcmqYA3qlUCAwEAAaOC
AW0wggFpMAkGA1UdEwQCMAAwLQYJYIZIAYb4QgENBCAWHkVhc3ktUlNBIEdlbmVy
YXRlZCBDZXJ0aWZpY2F0ZTAdBgNVHQ4EFgQUbJg41Y3wNHHjJsszZ3rRgc15a+Iw
gesGA1UdIwSB4zCB4IAUiwny1xcrKKOpzPy38/HdC8VFIYihgbykgbkwgbYxCzAJ
BgNVBAYTAlVTMQswCQYDVQQIEwJDQTEVMBMGA1UEBxMMU2FuRnJhbmNpc2NvMRUw
EwYDVQQKEwxGb3J0LUZ1bnN0b24xHTAbBgNVBAsTFE15T3JnYW5pemF0aW9uYWxV
bml0MRgwFgYDVQQDEw9Gb3J0LUZ1bnN0b24gQ0ExEDAOBgNVBCkTB0Vhc3lSU0Ex
ITAfBgkqhkiG9w0BCQEWEm1lQG15aG9zdC5teWRvbWFpboIJAJnUsLUtpU87MBMG
A1UdJQQMMAoGCCsGAQUFBwMCMAsGA1UdDwQEAwIHgDANBgkqhkiG9w0BAQsFAAOC
AQEAuUtMKQGWRcXKRm+iSa1BhcRbGQdvkqHlB/8cBcrrKV9jkbEYe/ZQwaXnFkg/
gwssGvv8dn5kMOYo9uFi69OkTJStR2UBqm1nh8+sw7EflvXATBIbhTg9tEG64TVZ
Z433lowt9wTnlO1HIzpj7UuV28Y6q2alSQrbx8Dq44k9N/0RbR/tJSY/lv63ih4s
Frn4OWtBMPd2LjMKR5pUue1bNyfQ24dqXMvwdXKX+lU0cyja/aHoBlLU0IhJLptV
f/9jOut6Dln65yw1v764MIFEzCcEAw/+xvUqLZ9Xjt8NVE8eB/7IzfReeVtOzJXu
L1jM4ICCq7GGzng2j8lI2DXQZQ==
-----END CERTIFICATE-----
